(dp0
Vengine
p1
Vxelatex
p2
sVpackages
p3
c__builtin__
set
p4
((lp5
Vhyperref
p6
aVlayout
p7
aVverbatim
p8
aVamsmath
p9
aVlatexsym
p10
aVfullpage
p11
aVanttor
p12
aVcolor
p13
aVamsthm
p14
aVfontenc
p15
aVamssymb
p16
atp17
Rp18
sVfiles_with_guttermarks
p19
g4
((lp20
V/Users/leannedong/Desktop/Bayesian_Neural_Network/MyLectureSummaries/./BayesianML.tex
p21
aS'BayesianML.tex'
p22
atp23
Rp24
sVsynctex
p25
I01
s.