(dp0
Vengine
p1
Vxelatex
p2
sVpackages
p3
c__builtin__
set
p4
((lp5
Vhyperref
p6
aVlayout
p7
aVmdframed
p8
aVverbatim
p9
aVamsmath
p10
aVlatexsym
p11
aVfullpage
p12
aVanttor
p13
aVcolor
p14
aVamsthm
p15
aVfontenc
p16
aVamssymb
p17
atp18
Rp19
sVfiles_with_guttermarks
p20
g4
((lp21
V/Users/leannedong/Desktop/Bayesian_Neural_Network/MyLectureSummaries/./BayesianML.tex
p22
aS'BayesianML.tex'
p23
atp24
Rp25
sVsynctex
p26
I01
s.